target datalayout = "e-m:e-p270:32:32-p271:32:32-p272:64:64-i64:64-i128:128-f80:128-n8:16:32:64-S128"
target triple = "x86_64-pc-linux-gnu"

%union.anon = type { ptr }
%union.anon.0 = type { ptr }

; Function Attrs: inlinehint nounwind uwtable
define internal void @XorWords(ptr noundef %0, ptr noundef %1, i32 noundef %2) #3 {
  %4 = alloca ptr, align 8
  %5 = alloca ptr, align 8
  %6 = alloca i32, align 4
  %7 = alloca i32, align 4
  store ptr %0, ptr %4, align 8, !tbaa !23
  store ptr %1, ptr %5, align 8, !tbaa !23
  store i32 %2, ptr %6, align 4, !tbaa !8
  call void @llvm.lifetime.start.p0(i64 4, ptr %7) #6
  store i32 0, ptr %7, align 4, !tbaa !8
  br label %8

8:                                                ; preds = %22, %3
  %9 = load i32, ptr %7, align 4, !tbaa !8
  %10 = load i32, ptr %6, align 4, !tbaa !8
  %11 = icmp ult i32 %9, %10
  br i1 %11, label %12, label %25

12:                                               ; preds = %8
  %13 = load ptr, ptr %5, align 8, !tbaa !23
  %14 = load ptr, ptr %13, align 8, !tbaa !15
  %15 = getelementptr inbounds nuw i64, ptr %14, i32 1
  store ptr %15, ptr %13, align 8, !tbaa !15
  %16 = load i64, ptr %14, align 8, !tbaa !17
  %17 = load ptr, ptr %4, align 8, !tbaa !23
  %18 = load ptr, ptr %17, align 8, !tbaa !15
  %19 = getelementptr inbounds nuw i64, ptr %18, i32 1
  store ptr %19, ptr %17, align 8, !tbaa !15
  %20 = load i64, ptr %18, align 8, !tbaa !17
  %21 = xor i64 %20, %16
  store i64 %21, ptr %18, align 8, !tbaa !17
  br label %22

22:                                               ; preds = %12
  %23 = load i32, ptr %7, align 4, !tbaa !8
  %24 = add i32 %23, 1
  store i32 %24, ptr %7, align 4, !tbaa !8
  br label %8, !llvm.loop !25

25:                                               ; preds = %8
  call void @llvm.lifetime.end.p0(i64 4, ptr %7) #6
  ret void
}

; Function Attrs: inlinehint nounwind uwtable
define internal void @ForceZero(ptr noundef %0, i32 noundef %1) #3 {
  %3 = alloca ptr, align 8
  %4 = alloca i32, align 4
  %5 = alloca ptr, align 8
  %6 = alloca ptr, align 8
  %7 = alloca i32, align 4
  store ptr %0, ptr %3, align 8, !tbaa !10
  store i32 %1, ptr %4, align 4, !tbaa !8
  call void @llvm.lifetime.start.p0(i64 8, ptr %5) #6
  %8 = load ptr, ptr %3, align 8, !tbaa !10
  store ptr %8, ptr %5, align 8, !tbaa !3
  call void @llvm.lifetime.start.p0(i64 8, ptr %6) #6
  call void @llvm.lifetime.start.p0(i64 4, ptr %7) #6
  %9 = load ptr, ptr %5, align 8, !tbaa !3
  %10 = ptrtoint ptr %9 to i64
  %11 = and i64 %10, 7
  %12 = sub i64 8, %11
  %13 = and i64 %12, 7
  %14 = trunc i64 %13 to i32
  store i32 %14, ptr %7, align 4, !tbaa !8
  %15 = load i32, ptr %4, align 4, !tbaa !8
  %16 = load i32, ptr %7, align 4, !tbaa !8
  %17 = icmp ult i32 %15, %16
  br i1 %17, label %18, label %20

18:                                               ; preds = %2
  %19 = load i32, ptr %4, align 4, !tbaa !8
  store i32 %19, ptr %7, align 4, !tbaa !8
  br label %20

20:                                               ; preds = %18, %2
  %21 = load i32, ptr %7, align 4, !tbaa !8
  %22 = load i32, ptr %4, align 4, !tbaa !8
  %23 = sub i32 %22, %21
  store i32 %23, ptr %4, align 4, !tbaa !8
  br label %24

24:                                               ; preds = %28, %20
  %25 = load i32, ptr %7, align 4, !tbaa !8
  %26 = add i32 %25, -1
  store i32 %26, ptr %7, align 4, !tbaa !8
  %27 = icmp ne i32 %25, 0
  br i1 %27, label %28, label %31

28:                                               ; preds = %24
  %29 = load ptr, ptr %5, align 8, !tbaa !3
  %30 = getelementptr inbounds nuw i8, ptr %29, i32 1
  store ptr %30, ptr %5, align 8, !tbaa !3
  store volatile i8 0, ptr %29, align 1, !tbaa !13
  br label %24, !llvm.loop !14

31:                                               ; preds = %24
  %32 = load ptr, ptr %5, align 8, !tbaa !3
  store ptr %32, ptr %6, align 8, !tbaa !15
  br label %33

33:                                               ; preds = %40, %31
  %34 = load i32, ptr %4, align 4, !tbaa !8
  %35 = zext i32 %34 to i64
  %36 = icmp uge i64 %35, 8
  br i1 %36, label %37, label %43

37:                                               ; preds = %33
  %38 = load ptr, ptr %6, align 8, !tbaa !15
  %39 = getelementptr inbounds nuw i64, ptr %38, i32 1
  store ptr %39, ptr %6, align 8, !tbaa !15
  store volatile i64 0, ptr %38, align 8, !tbaa !17
  br label %40

40:                                               ; preds = %37
  %41 = load i32, ptr %4, align 4, !tbaa !8
  %42 = sub i32 %41, 8
  store i32 %42, ptr %4, align 4, !tbaa !8
  br label %33, !llvm.loop !19

43:                                               ; preds = %33
  %44 = load ptr, ptr %6, align 8, !tbaa !15
  store ptr %44, ptr %5, align 8, !tbaa !3
  br label %45

45:                                               ; preds = %49, %43
  %46 = load i32, ptr %4, align 4, !tbaa !8
  %47 = add i32 %46, -1
  store i32 %47, ptr %4, align 4, !tbaa !8
  %48 = icmp ne i32 %46, 0
  br i1 %48, label %49, label %52

49:                                               ; preds = %45
  %50 = load ptr, ptr %5, align 8, !tbaa !3
  %51 = getelementptr inbounds nuw i8, ptr %50, i32 1
  store ptr %51, ptr %5, align 8, !tbaa !3
  store volatile i8 0, ptr %50, align 1, !tbaa !13
  br label %45, !llvm.loop !20

52:                                               ; preds = %45
  call void @llvm.lifetime.end.p0(i64 4, ptr %7) #6
  call void @llvm.lifetime.end.p0(i64 8, ptr %6) #6
  call void @llvm.lifetime.end.p0(i64 8, ptr %5) #6
  ret void
}

; Function Attrs: inlinehint nounwind uwtable
define internal void @xorbuf(ptr noundef %0, ptr noundef %1, i32 noundef %2) #3 {
  %4 = alloca ptr, align 8
  %5 = alloca ptr, align 8
  %6 = alloca i32, align 4
  %7 = alloca i32, align 4
  %8 = alloca ptr, align 8
  %9 = alloca ptr, align 8
  %10 = alloca %union.anon, align 8
  %11 = alloca %union.anon.0, align 8
  store ptr %0, ptr %4, align 8, !tbaa !10
  store ptr %1, ptr %5, align 8, !tbaa !10
  store i32 %2, ptr %6, align 4, !tbaa !8
  call void @llvm.lifetime.start.p0(i64 4, ptr %7) #6
  call void @llvm.lifetime.start.p0(i64 8, ptr %8) #6
  call void @llvm.lifetime.start.p0(i64 8, ptr %9) #6
  %12 = load ptr, ptr %4, align 8, !tbaa !10
  store ptr %12, ptr %8, align 8, !tbaa !3
  %13 = load ptr, ptr %5, align 8, !tbaa !10
  store ptr %13, ptr %9, align 8, !tbaa !3
  %14 = load ptr, ptr %8, align 8, !tbaa !3
  %15 = ptrtoint ptr %14 to i64
  %16 = urem i64 %15, 8
  %17 = load ptr, ptr %9, align 8, !tbaa !3
  %18 = ptrtoint ptr %17 to i64
  %19 = urem i64 %18, 8
  %20 = icmp eq i64 %16, %19
  br i1 %20, label %21, label %54

21:                                               ; preds = %3
  call void @llvm.lifetime.start.p0(i64 8, ptr %10) #6
  call void @llvm.lifetime.start.p0(i64 8, ptr %11) #6
  br label %22

22:                                               ; preds = %32, %21
  %23 = load ptr, ptr %4, align 8, !tbaa !10
  %24 = ptrtoint ptr %23 to i64
  %25 = urem i64 %24, 8
  %26 = icmp ne i64 %25, 0
  br i1 %26, label %27, label %30

27:                                               ; preds = %22
  %28 = load i32, ptr %6, align 4, !tbaa !8
  %29 = icmp ugt i32 %28, 0
  br label %30

30:                                               ; preds = %27, %22
  %31 = phi i1 [ false, %22 ], [ %29, %27 ]
  br i1 %31, label %32, label %45

32:                                               ; preds = %30
  %33 = load ptr, ptr %9, align 8, !tbaa !3
  %34 = getelementptr inbounds nuw i8, ptr %33, i32 1
  store ptr %34, ptr %9, align 8, !tbaa !3
  %35 = load i8, ptr %33, align 1, !tbaa !13
  %36 = zext i8 %35 to i32
  %37 = load ptr, ptr %8, align 8, !tbaa !3
  %38 = getelementptr inbounds nuw i8, ptr %37, i32 1
  store ptr %38, ptr %8, align 8, !tbaa !3
  %39 = load i8, ptr %37, align 1, !tbaa !13
  %40 = zext i8 %39 to i32
  %41 = xor i32 %40, %36
  %42 = trunc i32 %41 to i8
  store i8 %42, ptr %37, align 1, !tbaa !13
  %43 = load i32, ptr %6, align 4, !tbaa !8
  %44 = add i32 %43, -1
  store i32 %44, ptr %6, align 4, !tbaa !8
  br label %22, !llvm.loop !21

45:                                               ; preds = %30
  %46 = load ptr, ptr %8, align 8, !tbaa !3
  store ptr %46, ptr %10, align 8, !tbaa !13
  %47 = load ptr, ptr %9, align 8, !tbaa !3
  store ptr %47, ptr %11, align 8, !tbaa !13
  %48 = load i32, ptr %6, align 4, !tbaa !8
  %49 = udiv i32 %48, 8
  call void @XorWords(ptr noundef %10, ptr noundef %11, i32 noundef %49)
  %50 = load ptr, ptr %10, align 8, !tbaa !13
  store ptr %50, ptr %8, align 8, !tbaa !3
  %51 = load ptr, ptr %11, align 8, !tbaa !13
  store ptr %51, ptr %9, align 8, !tbaa !3
  %52 = load i32, ptr %6, align 4, !tbaa !8
  %53 = urem i32 %52, 8
  store i32 %53, ptr %6, align 4, !tbaa !8
  call void @llvm.lifetime.end.p0(i64 8, ptr %11) #6
  call void @llvm.lifetime.end.p0(i64 8, ptr %10) #6
  br label %54

54:                                               ; preds = %45, %3
  store i32 0, ptr %7, align 4, !tbaa !8
  br label %55

55:                                               ; preds = %74, %54
  %56 = load i32, ptr %7, align 4, !tbaa !8
  %57 = load i32, ptr %6, align 4, !tbaa !8
  %58 = icmp ult i32 %56, %57
  br i1 %58, label %59, label %77

59:                                               ; preds = %55
  %60 = load ptr, ptr %9, align 8, !tbaa !3
  %61 = load i32, ptr %7, align 4, !tbaa !8
  %62 = zext i32 %61 to i64
  %63 = getelementptr inbounds nuw i8, ptr %60, i64 %62
  %64 = load i8, ptr %63, align 1, !tbaa !13
  %65 = zext i8 %64 to i32
  %66 = load ptr, ptr %8, align 8, !tbaa !3
  %67 = load i32, ptr %7, align 4, !tbaa !8
  %68 = zext i32 %67 to i64
  %69 = getelementptr inbounds nuw i8, ptr %66, i64 %68
  %70 = load i8, ptr %69, align 1, !tbaa !13
  %71 = zext i8 %70 to i32
  %72 = xor i32 %71, %65
  %73 = trunc i32 %72 to i8
  store i8 %73, ptr %69, align 1, !tbaa !13
  br label %74

74:                                               ; preds = %59
  %75 = load i32, ptr %7, align 4, !tbaa !8
  %76 = add i32 %75, 1
  store i32 %76, ptr %7, align 4, !tbaa !8
  br label %55, !llvm.loop !22

77:                                               ; preds = %55
  call void @llvm.lifetime.end.p0(i64 8, ptr %9) #6
  call void @llvm.lifetime.end.p0(i64 8, ptr %8) #6
  call void @llvm.lifetime.end.p0(i64 4, ptr %7) #6
  ret void
}

; Function Attrs: nounwind uwtable
define i32 @wc_PRF_TLSv1(ptr noundef %0, i32 noundef %1, ptr noundef %2, i32 noundef %3, ptr noundef %4, i32 noundef %5, ptr noundef %6, i32 noundef %7, ptr noundef %8, i32 noundef %9) #0 {
  %11 = alloca i32, align 4
  %12 = alloca ptr, align 8
  %13 = alloca i32, align 4
  %14 = alloca ptr, align 8
  %15 = alloca i32, align 4
  %16 = alloca ptr, align 8
  %17 = alloca i32, align 4
  %18 = alloca ptr, align 8
  %19 = alloca i32, align 4
  %20 = alloca ptr, align 8
  %21 = alloca i32, align 4
  %22 = alloca i32, align 4
  %23 = alloca i32, align 4
  %24 = alloca ptr, align 8
  %25 = alloca ptr, align 8
  %26 = alloca ptr, align 8
  %27 = alloca [224 x i8], align 16
  %28 = alloca [128 x i8], align 16
  %29 = alloca i32, align 4
  store ptr %0, ptr %12, align 8, !tbaa !3
  store i32 %1, ptr %13, align 4, !tbaa !8
  store ptr %2, ptr %14, align 8, !tbaa !3
  store i32 %3, ptr %15, align 4, !tbaa !8
  store ptr %4, ptr %16, align 8, !tbaa !3
  store i32 %5, ptr %17, align 4, !tbaa !8
  store ptr %6, ptr %18, align 8, !tbaa !3
  store i32 %7, ptr %19, align 4, !tbaa !8
  store ptr %8, ptr %20, align 8, !tbaa !10
  store i32 %9, ptr %21, align 4, !tbaa !8
  call void @llvm.lifetime.start.p0(i64 4, ptr %22) #6
  store i32 0, ptr %22, align 4, !tbaa !8
  call void @llvm.lifetime.start.p0(i64 4, ptr %23) #6
  %30 = load i32, ptr %15, align 4, !tbaa !8
  %31 = add i32 %30, 1
  %32 = udiv i32 %31, 2
  store i32 %32, ptr %23, align 4, !tbaa !8
  call void @llvm.lifetime.start.p0(i64 8, ptr %24) #6
  call void @llvm.lifetime.start.p0(i64 8, ptr %25) #6
  call void @llvm.lifetime.start.p0(i64 8, ptr %26) #6
  call void @llvm.lifetime.start.p0(i64 224, ptr %27) #6
  call void @llvm.lifetime.start.p0(i64 128, ptr %28) #6
  %33 = load i32, ptr %23, align 4, !tbaa !8
  %34 = icmp ugt i32 %33, 260
  br i1 %34, label %43, label %35

35:                                               ; preds = %10
  %36 = load i32, ptr %17, align 4, !tbaa !8
  %37 = load i32, ptr %19, align 4, !tbaa !8
  %38 = add i32 %36, %37
  %39 = icmp ugt i32 %38, 128
  br i1 %39, label %43, label %40

40:                                               ; preds = %35
  %41 = load i32, ptr %13, align 4, !tbaa !8
  %42 = icmp ugt i32 %41, 224
  br i1 %42, label %43, label %44

43:                                               ; preds = %40, %35, %10
  store i32 -132, ptr %11, align 4
  store i32 1, ptr %29, align 4
  br label %101

44:                                               ; preds = %40
  %45 = load ptr, ptr %14, align 8, !tbaa !3
  store ptr %45, ptr %24, align 8, !tbaa !3
  %46 = load ptr, ptr %14, align 8, !tbaa !3
  %47 = load i32, ptr %23, align 4, !tbaa !8
  %48 = zext i32 %47 to i64
  %49 = getelementptr inbounds nuw i8, ptr %46, i64 %48
  %50 = load i32, ptr %15, align 4, !tbaa !8
  %51 = urem i32 %50, 2
  %52 = zext i32 %51 to i64
  %53 = sub i64 0, %52
  %54 = getelementptr inbounds i8, ptr %49, i64 %53
  store ptr %54, ptr %25, align 8, !tbaa !3
  %55 = load ptr, ptr %12, align 8, !tbaa !3
  store ptr %55, ptr %26, align 8, !tbaa !3
  %56 = getelementptr inbounds [128 x i8], ptr %28, i64 0, i64 0
  %57 = load ptr, ptr %16, align 8, !tbaa !3
  %58 = load i32, ptr %17, align 4, !tbaa !8
  %59 = zext i32 %58 to i64
  call void @llvm.memcpy.p0.p0.i64(ptr align 16 %56, ptr align 1 %57, i64 %59, i1 false)
  %60 = getelementptr inbounds [128 x i8], ptr %28, i64 0, i64 0
  %61 = load i32, ptr %17, align 4, !tbaa !8
  %62 = zext i32 %61 to i64
  %63 = getelementptr inbounds nuw i8, ptr %60, i64 %62
  %64 = load ptr, ptr %18, align 8, !tbaa !3
  %65 = load i32, ptr %19, align 4, !tbaa !8
  %66 = zext i32 %65 to i64
  call void @llvm.memcpy.p0.p0.i64(ptr align 1 %63, ptr align 1 %64, i64 %66, i1 false)
  %67 = load ptr, ptr %26, align 8, !tbaa !3
  %68 = load i32, ptr %13, align 4, !tbaa !8
  %69 = load ptr, ptr %24, align 8, !tbaa !3
  %70 = load i32, ptr %23, align 4, !tbaa !8
  %71 = getelementptr inbounds [128 x i8], ptr %28, i64 0, i64 0
  %72 = load i32, ptr %17, align 4, !tbaa !8
  %73 = load i32, ptr %19, align 4, !tbaa !8
  %74 = add i32 %72, %73
  %75 = load ptr, ptr %20, align 8, !tbaa !10
  %76 = load i32, ptr %21, align 4, !tbaa !8
  %77 = call i32 @wc_PRF(ptr noundef %67, i32 noundef %68, ptr noundef %69, i32 noundef %70, ptr noundef %71, i32 noundef %74, i32 noundef 1, ptr noundef %75, i32 noundef %76)
  store i32 %77, ptr %22, align 4, !tbaa !8
  %78 = icmp eq i32 %77, 0
  br i1 %78, label %79, label %99

79:                                               ; preds = %44
  %80 = getelementptr inbounds [224 x i8], ptr %27, i64 0, i64 0
  %81 = load i32, ptr %13, align 4, !tbaa !8
  %82 = load ptr, ptr %25, align 8, !tbaa !3
  %83 = load i32, ptr %23, align 4, !tbaa !8
  %84 = getelementptr inbounds [128 x i8], ptr %28, i64 0, i64 0
  %85 = load i32, ptr %17, align 4, !tbaa !8
  %86 = load i32, ptr %19, align 4, !tbaa !8
  %87 = add i32 %85, %86
  %88 = load ptr, ptr %20, align 8, !tbaa !10
  %89 = load i32, ptr %21, align 4, !tbaa !8
  %90 = call i32 @wc_PRF(ptr noundef %80, i32 noundef %81, ptr noundef %82, i32 noundef %83, ptr noundef %84, i32 noundef %87, i32 noundef 2, ptr noundef %88, i32 noundef %89)
  store i32 %90, ptr %22, align 4, !tbaa !8
  %91 = icmp eq i32 %90, 0
  br i1 %91, label %92, label %98

92:                                               ; preds = %79
  %93 = load ptr, ptr %12, align 8, !tbaa !3
  %94 = getelementptr inbounds [224 x i8], ptr %27, i64 0, i64 0
  %95 = load i32, ptr %13, align 4, !tbaa !8
  call void @xorbuf(ptr noundef %93, ptr noundef %94, i32 noundef %95)
  %96 = getelementptr inbounds [224 x i8], ptr %27, i64 0, i64 0
  %97 = load i32, ptr %13, align 4, !tbaa !8
  call void @ForceZero(ptr noundef %96, i32 noundef %97)
  br label %98

98:                                               ; preds = %92, %79
  br label %99

99:                                               ; preds = %98, %44
  %100 = load i32, ptr %22, align 4, !tbaa !8
  store i32 %100, ptr %11, align 4
  store i32 1, ptr %29, align 4
  br label %101

101:                                              ; preds = %99, %43
  call void @llvm.lifetime.end.p0(i64 128, ptr %28) #6
  call void @llvm.lifetime.end.p0(i64 224, ptr %27) #6
  call void @llvm.lifetime.end.p0(i64 8, ptr %26) #6
  call void @llvm.lifetime.end.p0(i64 8, ptr %25) #6
  call void @llvm.lifetime.end.p0(i64 8, ptr %24) #6
  call void @llvm.lifetime.end.p0(i64 4, ptr %23) #6
  call void @llvm.lifetime.end.p0(i64 4, ptr %22) #6
  %102 = load i32, ptr %11, align 4
  ret i32 %102
}