; Function Attrs: nounwind uwtable
define i32 @wc_PRF_TLSv1(ptr noundef %0, i32 noundef %1, ptr noundef %2, i32 noundef %3, ptr noundef readonly captures(none) %4, i32 noundef %5, ptr noundef readonly captures(none) %6, i32 noundef %7, ptr noundef %8, i32 noundef %9) local_unnamed_addr #0 {
  %11 = alloca [224 x i8], align 16
  %12 = alloca [128 x i8], align 16
  %13 = add i32 %3, 1
  %14 = lshr i32 %13, 1
  call void @llvm.lifetime.start.p0(i64 224, ptr nonnull %11) #6
  call void @llvm.lifetime.start.p0(i64 128, ptr nonnull %12) #6
  %15 = icmp ugt i32 %13, 521
  br i1 %15, label %ForceZero.exit, label %16

16:                                               ; preds = %10
  %17 = add i32 %7, %5
  %18 = icmp ugt i32 %17, 128
  %19 = icmp ugt i32 %1, 224
  %or.cond = or i1 %19, %18
  br i1 %or.cond, label %ForceZero.exit, label %20

20:                                               ; preds = %16
  %21 = zext i32 %5 to i64
  call void @llvm.memcpy.p0.p0.i64(ptr nonnull align 16 %12, ptr align 1 %4, i64 %21, i1 false)
  %22 = getelementptr inbounds nuw i8, ptr %12, i64 %21
  %23 = zext i32 %7 to i64
  call void @llvm.memcpy.p0.p0.i64(ptr nonnull align 1 %22, ptr align 1 %6, i64 %23, i1 false)
  %24 = call i32 @wc_PRF(ptr noundef %0, i32 noundef %1, ptr noundef %2, i32 noundef %14, ptr noundef nonnull %12, i32 noundef %17, i32 noundef 1, ptr noundef %8, i32 noundef %9)
  %25 = icmp eq i32 %24, 0
  br i1 %25, label %26, label %ForceZero.exit

26:                                               ; preds = %20
  %27 = zext nneg i32 %14 to i64
  %28 = getelementptr inbounds nuw i8, ptr %2, i64 %27
  %29 = and i32 %3, 1
  %30 = zext nneg i32 %29 to i64
  %31 = sub nsw i64 0, %30
  %32 = getelementptr inbounds i8, ptr %28, i64 %31
  %33 = call i32 @wc_PRF(ptr noundef nonnull %11, i32 noundef %1, ptr noundef %32, i32 noundef %14, ptr noundef nonnull %12, i32 noundef %17, i32 noundef 2, ptr noundef %8, i32 noundef %9)
  %34 = icmp eq i32 %33, 0
  br i1 %34, label %35, label %ForceZero.exit

35:                                               ; preds = %26
  %36 = ptrtoint ptr %0 to i64
  %37 = and i64 %36, 7
  %38 = icmp eq i64 %37, 0
  br i1 %38, label %._crit_edge.i, label %47

._crit_edge.i:                                    ; preds = %35
  %39 = lshr i32 %1, 3
  %.not.i.i = icmp samesign ult i32 %1, 8
  br i1 %.not.i.i, label %XorWords.exit.i, label %.lr.ph.i.i

.lr.ph.i.i:                                       ; preds = %._crit_edge.i, %.lr.ph.i.i
  %.sroa.026.0.i = phi ptr [ %42, %.lr.ph.i.i ], [ %0, %._crit_edge.i ]
  %.sroa.0.0.i = phi ptr [ %40, %.lr.ph.i.i ], [ %11, %._crit_edge.i ]
  %.04.i.i = phi i32 [ %45, %.lr.ph.i.i ], [ 0, %._crit_edge.i ]
  %40 = getelementptr inbounds nuw i8, ptr %.sroa.0.0.i, i64 8
  %41 = load i64, ptr %.sroa.0.0.i, align 8, !tbaa !5
  %42 = getelementptr inbounds nuw i8, ptr %.sroa.026.0.i, i64 8
  %43 = load i64, ptr %.sroa.026.0.i, align 8, !tbaa !5
  %44 = xor i64 %43, %41
  store i64 %44, ptr %.sroa.026.0.i, align 8, !tbaa !5
  %45 = add nuw nsw i32 %.04.i.i, 1
  %exitcond.not.i.i = icmp eq i32 %45, %39
  br i1 %exitcond.not.i.i, label %XorWords.exit.i, label %.lr.ph.i.i, !llvm.loop !10

XorWords.exit.i:                                  ; preds = %.lr.ph.i.i, %._crit_edge.i
  %.sroa.026.1.i = phi ptr [ %0, %._crit_edge.i ], [ %42, %.lr.ph.i.i ]
  %.sroa.0.1.i = phi ptr [ %11, %._crit_edge.i ], [ %40, %.lr.ph.i.i ]
  %46 = and i32 %1, 7
  br label %47

47:                                               ; preds = %XorWords.exit.i, %35
  %.022.i = phi i32 [ %46, %XorWords.exit.i ], [ %1, %35 ]
  %.019.i = phi ptr [ %.sroa.026.1.i, %XorWords.exit.i ], [ %0, %35 ]
  %.0.i = phi ptr [ %.sroa.0.1.i, %XorWords.exit.i ], [ %11, %35 ]
  %.not40.i = icmp eq i32 %.022.i, 0
  br i1 %.not40.i, label %.preheader23.i, label %.lr.ph38.preheader.i

.lr.ph38.preheader.i:                             ; preds = %47
  %wide.trip.count.i = zext nneg i32 %.022.i to i64
  br label %.lr.ph38.i

.lr.ph38.i:                                       ; preds = %.lr.ph38.i, %.lr.ph38.preheader.i
  %indvars.iv.i = phi i64 [ 0, %.lr.ph38.preheader.i ], [ %indvars.iv.next.i, %.lr.ph38.i ]
  %48 = getelementptr inbounds nuw i8, ptr %.0.i, i64 %indvars.iv.i
  %49 = load i8, ptr %48, align 1, !tbaa !11
  %50 = getelementptr inbounds nuw i8, ptr %.019.i, i64 %indvars.iv.i
  %51 = load i8, ptr %50, align 1, !tbaa !11
  %52 = xor i8 %51, %49
  store i8 %52, ptr %50, align 1, !tbaa !11
  %indvars.iv.next.i = add nuw nsw i64 %indvars.iv.i, 1
  %exitcond.not.i = icmp eq i64 %indvars.iv.next.i, %wide.trip.count.i
  br i1 %exitcond.not.i, label %.preheader23.i, label %.lr.ph38.i, !llvm.loop !12

.preheader23.i:                                   ; preds = %.lr.ph38.i, %47
  %53 = icmp ugt i32 %1, 7
  br i1 %53, label %.lr.ph29.i, label %.preheader.i42

.preheader.i42:                                   ; preds = %.lr.ph29.i, %.preheader23.i
  %.018.lcssa.i = phi i32 [ %1, %.preheader23.i ], [ %55, %.lr.ph29.i ]
  %.015.lcssa.i = phi ptr [ %11, %.preheader23.i ], [ %54, %.lr.ph29.i ]
  %.not2232.i = icmp eq i32 %.018.lcssa.i, 0
  br i1 %.not2232.i, label %ForceZero.exit, label %.lr.ph35.i

.lr.ph29.i:                                       ; preds = %.preheader23.i, %.lr.ph29.i
  %.01528.i = phi ptr [ %54, %.lr.ph29.i ], [ %11, %.preheader23.i ]
  %.01827.i = phi i32 [ %55, %.lr.ph29.i ], [ %1, %.preheader23.i ]
  %54 = getelementptr inbounds nuw i8, ptr %.01528.i, i64 8
  store volatile i64 0, ptr %.01528.i, align 8, !tbaa !5
  %55 = add i32 %.01827.i, -8
  %56 = icmp ugt i32 %55, 7
  br i1 %56, label %.lr.ph29.i, label %.preheader.i42, !llvm.loop !9

.lr.ph35.i:                                       ; preds = %.preheader.i42, %.lr.ph35.i
  %.11734.i = phi ptr [ %58, %.lr.ph35.i ], [ %.015.lcssa.i, %.preheader.i42 ]
  %.11933.i = phi i32 [ %57, %.lr.ph35.i ], [ %.018.lcssa.i, %.preheader.i42 ]
  %57 = add i32 %.11933.i, -1
  %58 = getelementptr inbounds nuw i8, ptr %.11734.i, i64 1
  store volatile i8 0, ptr %.11734.i, align 1, !tbaa !11
  %.not22.i = icmp eq i32 %57, 0
  br i1 %.not22.i, label %ForceZero.exit, label %.lr.ph35.i, !llvm.loop !13

ForceZero.exit:                                   ; preds = %.lr.ph35.i, %.preheader.i42, %20, %26, %10, %16
  %.0 = phi i32 [ -132, %16 ], [ -132, %10 ], [ %33, %26 ], [ %24, %20 ], [ 0, %.preheader.i42 ], [ 0, %.lr.ph35.i ]
  call void @llvm.lifetime.end.p0(i64 128, ptr nonnull %12) #6
  call void @llvm.lifetime.end.p0(i64 224, ptr nonnull %11) #6
  ret i32 %.0
}